target datalayout = "e-m:e-p270:32:32-p271:32:32-p272:64:64-i64:64-i128:128-f80:128-n8:16:32:64-S128"
target triple = "x86_64-pc-linux-gnu"

@.str.3 = private unnamed_addr constant [9 x i8] c"namemode\00", align 1

; Function Attrs: inlinehint nounwind willreturn memory(read) uwtable
define available_externally i32 @atoi(ptr noundef nonnull %0) #7 {
  %2 = alloca ptr, align 8
  store ptr %0, ptr %2, align 8, !tbaa !38
  %3 = load ptr, ptr %2, align 8, !tbaa !38
  %4 = call i64 @strtol(ptr noundef %3, ptr noundef null, i32 noundef 10) #10
  %5 = trunc i64 %4 to i32
  ret i32 %5
}

; Function Attrs: nounwind uwtable
define i32 @Abc_FrameReadMode(ptr noundef %0) #0 {
  %2 = alloca ptr, align 8
  %3 = alloca i32, align 4
  %4 = alloca ptr, align 8
  store ptr %0, ptr %2, align 8, !tbaa !3
  call void @llvm.lifetime.start.p0(i64 4, ptr %3) #10
  call void @llvm.lifetime.start.p0(i64 8, ptr %4) #10
  %5 = load ptr, ptr %2, align 8, !tbaa !3
  %6 = call ptr @Cmd_FlagReadByName(ptr noundef %5, ptr noundef @.str.3)
  store ptr %6, ptr %4, align 8, !tbaa !38
  %7 = load ptr, ptr %4, align 8, !tbaa !38
  %8 = icmp eq ptr %7, null
  br i1 %8, label %9, label %10

9:                                                ; preds = %1
  store i32 0, ptr %3, align 4, !tbaa !65
  br label %13

10:                                               ; preds = %1
  %11 = load ptr, ptr %4, align 8, !tbaa !38
  %12 = call i32 @atoi(ptr noundef %11) #11
  store i32 %12, ptr %3, align 4, !tbaa !65
  br label %13

13:                                               ; preds = %10, %9
  %14 = load i32, ptr %3, align 4, !tbaa !65
  call void @llvm.lifetime.end.p0(i64 8, ptr %4) #10
  call void @llvm.lifetime.end.p0(i64 4, ptr %3) #10
  ret i32 %14
}

; Function Attrs: nounwind uwtable
define i32 @Abc_FrameSetMode(ptr noundef %0, i32 noundef %1) #0 {
  %3 = alloca ptr, align 8
  %4 = alloca i32, align 4
  %5 = alloca [2 x i8], align 1
  %6 = alloca i32, align 4
  store ptr %0, ptr %3, align 8, !tbaa !3
  store i32 %1, ptr %4, align 4, !tbaa !65
  call void @llvm.lifetime.start.p0(i64 2, ptr %5) #10
  call void @llvm.lifetime.start.p0(i64 4, ptr %6) #10
  %7 = load ptr, ptr %3, align 8, !tbaa !3
  %8 = call i32 @Abc_FrameReadMode(ptr noundef %7)
  store i32 %8, ptr %6, align 4, !tbaa !65
  %9 = load i32, ptr %4, align 4, !tbaa !65
  %10 = add nsw i32 48, %9
  %11 = trunc i32 %10 to i8
  %12 = getelementptr inbounds [2 x i8], ptr %5, i64 0, i64 0
  store i8 %11, ptr %12, align 1, !tbaa !111
  %13 = getelementptr inbounds [2 x i8], ptr %5, i64 0, i64 1
  store i8 0, ptr %13, align 1, !tbaa !111
  %14 = load ptr, ptr %3, align 8, !tbaa !3
  %15 = getelementptr inbounds [2 x i8], ptr %5, i64 0, i64 0
  call void @Cmd_FlagUpdateValue(ptr noundef %14, ptr noundef @.str.3, ptr noundef %15)
  %16 = load i32, ptr %6, align 4, !tbaa !65
  call void @llvm.lifetime.end.p0(i64 4, ptr %6) #10
  call void @llvm.lifetime.end.p0(i64 2, ptr %5) #10
  ret i32 %16
}