; Function Attrs: nounwind uwtable
define i32 @Abc_FrameSetMode(ptr noundef %0, i32 noundef %1) local_unnamed_addr #1 {
  %3 = alloca [2 x i8], align 1
  call void @llvm.lifetime.start.p0(i64 2, ptr nonnull %3) #20
  %4 = tail call ptr @Cmd_FlagReadByName(ptr noundef %0, ptr noundef nonnull @.str.3) #20
  %5 = icmp eq ptr %4, null
  br i1 %5, label %Abc_FrameReadMode.exit, label %6

6:                                                ; preds = %2
  %7 = tail call i64 @strtol(ptr noundef nonnull captures(none) %4, ptr noundef null, i32 noundef 10) #20
  %8 = trunc i64 %7 to i32
  br label %Abc_FrameReadMode.exit

Abc_FrameReadMode.exit:                           ; preds = %2, %6
  %.0.i = phi i32 [ %8, %6 ], [ 0, %2 ]
  %9 = trunc i32 %1 to i8
  %10 = add i8 %9, 48
  store i8 %10, ptr %3, align 1, !tbaa !108
  %11 = getelementptr inbounds nuw i8, ptr %3, i64 1
  store i8 0, ptr %11, align 1, !tbaa !108
  call void @Cmd_FlagUpdateValue(ptr noundef %0, ptr noundef nonnull @.str.3, ptr noundef nonnull %3) #20
  call void @llvm.lifetime.end.p0(i64 2, ptr nonnull %3) #20
  ret i32 %.0.i
}